; Function Attrs: null_pointer_is_valid sspstrong uwtable
define ptr @proto_tree_add_cbor_ctrl(ptr noundef %0, i32 noundef %1, ptr noundef %2, ptr noundef %3, ptr noundef readonly captures(none) %4) local_unnamed_addr #0 {
  %6 = alloca %struct.wscbor_expert_add_t, align 8
  %7 = getelementptr inbounds nuw i8, ptr %4, i64 8
  %8 = load i32, ptr %7, align 8
  %9 = getelementptr inbounds nuw i8, ptr %4, i64 12
  %10 = load i32, ptr %9, align 4
  %11 = tail call ptr @proto_tree_add_item(ptr noundef %0, i32 noundef %1, ptr noundef %3, i32 noundef %8, i32 noundef %10, i32 noundef 0)
  call void @llvm.lifetime.start.p0(i64 16, ptr nonnull %6) #9
  store ptr %2, ptr %6, align 8
  %12 = getelementptr inbounds nuw i8, ptr %6, i64 8
  store ptr %11, ptr %12, align 8
  %13 = getelementptr inbounds nuw i8, ptr %4, i64 24
  %14 = load ptr, ptr %13, align 8
  call void @wmem_list_foreach(ptr noundef %14, ptr noundef nonnull @wscbor_expert_add, ptr noundef nonnull %6)
  %15 = load ptr, ptr %4, align 8
  %16 = getelementptr inbounds nuw i8, ptr %15, i64 8
  %17 = load ptr, ptr %16, align 8
  call void @wmem_list_foreach(ptr noundef %17, ptr noundef nonnull @wscbor_expert_add, ptr noundef nonnull %6)
  %18 = load ptr, ptr %13, align 8
  %19 = call i32 @wmem_list_count(ptr noundef %18)
  call void @llvm.lifetime.end.p0(i64 16, ptr nonnull %6) #9
  ret ptr %11
}